target datalayout = "e-m:e-p270:32:32-p271:32:32-p272:64:64-i64:64-i128:128-f80:128-n8:16:32:64-S128"
target triple = "x86_64-pc-linux-gnu"

%struct.IDAMemRec = type { double, ptr, ptr, i32, double, double, ptr, i32, ptr, ptr, i32, ptr, ptr, i32, i32, double, double, ptr, i32, i32, i32, ptr, ptr, i32, ptr, ptr, ptr, i32, double, i32, i32, double, ptr, ptr, i32, ptr, ptr, i32, i32, i32, double, ptr, ptr, [6 x ptr], [6 x double], [6 x double], [6 x double], [6 x double], [6 x double], ptr, ptr, ptr, ptr, ptr, ptr, ptr, ptr, ptr, ptr, ptr, ptr, ptr, ptr, ptr, [6 x ptr], ptr, ptr, ptr, ptr, [6 x ptr], ptr, ptr, ptr, ptr, ptr, ptr, ptr, ptr, ptr, ptr, ptr, ptr, ptr, ptr, [6 x ptr], ptr, ptr, ptr, ptr, ptr, double, ptr, ptr, i32, i32, i32, i32, i32, i32, i32, double, double, double, i32, double, i32, i32, i32, i32, double, double, double, double, double, double, double, double, double, double, double, double, double, double, i32, i32, i32, i32, i32, i64, double, i32, i64, i64, i64, i64, i64, i64, i64, i64, i64, i64, i64, i64, i64, i64, i64, i64, i64, i64, i64, i64, i64, i64, i64, i64, ptr, ptr, ptr, i32, i32, i32, i32, i32, i32, i32, i32, i32, i32, i32, i32, i32, ptr, ptr, ptr, ptr, ptr, ptr, i32, i32, i32, i32, i32, i32, double, double, double, ptr, i32, ptr, ptr, double, double, double, ptr, ptr, ptr, double, double, i32, i32, i64, ptr, i32, i32, ptr, i32 }
%struct.IDADlsMemRec = type { i32, i64, i64, i64, i64, i32, ptr, ptr, ptr, ptr, ptr, ptr, i64, i64, i64 }

@.str = private unnamed_addr constant [9 x i8] c"IDASBAND\00", align 1
@.str.10 = private unnamed_addr constant [13 x i8] c"IDABandSetup\00", align 1
@.str.11 = private unnamed_addr constant [56 x i8] c"The Jacobian routine failed in an unrecoverable manner.\00", align 1

; Function Attrs: nounwind uwtable
define internal i32 @IDABandSetup(ptr noundef %0, ptr noundef %1, ptr noundef %2, ptr noundef %3, ptr noundef %4, ptr noundef %5, ptr noundef %6) #0 {
  %8 = alloca i32, align 4
  %9 = alloca ptr, align 8
  %10 = alloca ptr, align 8
  %11 = alloca ptr, align 8
  %12 = alloca ptr, align 8
  %13 = alloca ptr, align 8
  %14 = alloca ptr, align 8
  %15 = alloca ptr, align 8
  %16 = alloca i32, align 4
  %17 = alloca i64, align 8
  %18 = alloca ptr, align 8
  %19 = alloca i32, align 4
  store ptr %0, ptr %9, align 8, !tbaa !9
  store ptr %1, ptr %10, align 8, !tbaa !53
  store ptr %2, ptr %11, align 8, !tbaa !53
  store ptr %3, ptr %12, align 8, !tbaa !53
  store ptr %4, ptr %13, align 8, !tbaa !53
  store ptr %5, ptr %14, align 8, !tbaa !53
  store ptr %6, ptr %15, align 8, !tbaa !53
  call void @llvm.lifetime.start.p0(i64 4, ptr %16) #5
  call void @llvm.lifetime.start.p0(i64 8, ptr %17) #5
  call void @llvm.lifetime.start.p0(i64 8, ptr %18) #5
  %20 = load ptr, ptr %9, align 8, !tbaa !9
  %21 = getelementptr inbounds nuw %struct.IDAMemRec, ptr %20, i32 0, i32 176
  %22 = load ptr, ptr %21, align 8, !tbaa !49
  store ptr %22, ptr %18, align 8, !tbaa !32
  %23 = load ptr, ptr %18, align 8, !tbaa !32
  %24 = getelementptr inbounds nuw %struct.IDADlsMemRec, ptr %23, i32 0, i32 12
  %25 = load i64, ptr %24, align 8, !tbaa !50
  %26 = add nsw i64 %25, 1
  store i64 %26, ptr %24, align 8, !tbaa !50
  %27 = load ptr, ptr %18, align 8, !tbaa !32
  %28 = getelementptr inbounds nuw %struct.IDADlsMemRec, ptr %27, i32 0, i32 9
  %29 = load ptr, ptr %28, align 8, !tbaa !47
  call void @SetToZero(ptr noundef %29)
  %30 = load ptr, ptr %18, align 8, !tbaa !32
  %31 = getelementptr inbounds nuw %struct.IDADlsMemRec, ptr %30, i32 0, i32 7
  %32 = load ptr, ptr %31, align 8, !tbaa !39
  %33 = load ptr, ptr %18, align 8, !tbaa !32
  %34 = getelementptr inbounds nuw %struct.IDADlsMemRec, ptr %33, i32 0, i32 1
  %35 = load i64, ptr %34, align 8, !tbaa !43
  %36 = load ptr, ptr %18, align 8, !tbaa !32
  %37 = getelementptr inbounds nuw %struct.IDADlsMemRec, ptr %36, i32 0, i32 3
  %38 = load i64, ptr %37, align 8, !tbaa !45
  %39 = load ptr, ptr %18, align 8, !tbaa !32
  %40 = getelementptr inbounds nuw %struct.IDADlsMemRec, ptr %39, i32 0, i32 2
  %41 = load i64, ptr %40, align 8, !tbaa !44
  %42 = load ptr, ptr %9, align 8, !tbaa !9
  %43 = getelementptr inbounds nuw %struct.IDAMemRec, ptr %42, i32 0, i32 112
  %44 = load double, ptr %43, align 8, !tbaa !54
  %45 = load ptr, ptr %9, align 8, !tbaa !9
  %46 = getelementptr inbounds nuw %struct.IDAMemRec, ptr %45, i32 0, i32 114
  %47 = load double, ptr %46, align 8, !tbaa !55
  %48 = load ptr, ptr %10, align 8, !tbaa !53
  %49 = load ptr, ptr %11, align 8, !tbaa !53
  %50 = load ptr, ptr %12, align 8, !tbaa !53
  %51 = load ptr, ptr %18, align 8, !tbaa !32
  %52 = getelementptr inbounds nuw %struct.IDADlsMemRec, ptr %51, i32 0, i32 9
  %53 = load ptr, ptr %52, align 8, !tbaa !47
  %54 = load ptr, ptr %18, align 8, !tbaa !32
  %55 = getelementptr inbounds nuw %struct.IDADlsMemRec, ptr %54, i32 0, i32 8
  %56 = load ptr, ptr %55, align 8, !tbaa !40
  %57 = load ptr, ptr %13, align 8, !tbaa !53
  %58 = load ptr, ptr %14, align 8, !tbaa !53
  %59 = load ptr, ptr %15, align 8, !tbaa !53
  %60 = call i32 %32(i64 noundef %35, i64 noundef %38, i64 noundef %41, double noundef %44, double noundef %47, ptr noundef %48, ptr noundef %49, ptr noundef %50, ptr noundef %53, ptr noundef %56, ptr noundef %57, ptr noundef %58, ptr noundef %59)
  store i32 %60, ptr %16, align 4, !tbaa !27
  %61 = load i32, ptr %16, align 4, !tbaa !27
  %62 = icmp slt i32 %61, 0
  br i1 %62, label %63, label %67

63:                                               ; preds = %7
  %64 = load ptr, ptr %9, align 8, !tbaa !9
  call void (ptr, i32, ptr, ptr, ptr, ...) @IDAProcessError(ptr noundef %64, i32 noundef -5, ptr noundef @.str, ptr noundef @.str.10, ptr noundef @.str.11)
  %65 = load ptr, ptr %18, align 8, !tbaa !32
  %66 = getelementptr inbounds nuw %struct.IDADlsMemRec, ptr %65, i32 0, i32 14
  store i64 -5, ptr %66, align 8, !tbaa !41
  store i32 -1, ptr %8, align 4
  store i32 1, ptr %19, align 4
  br label %90

67:                                               ; preds = %7
  %68 = load i32, ptr %16, align 4, !tbaa !27
  %69 = icmp sgt i32 %68, 0
  br i1 %69, label %70, label %73

70:                                               ; preds = %67
  %71 = load ptr, ptr %18, align 8, !tbaa !32
  %72 = getelementptr inbounds nuw %struct.IDADlsMemRec, ptr %71, i32 0, i32 14
  store i64 -6, ptr %72, align 8, !tbaa !41
  store i32 1, ptr %8, align 4
  store i32 1, ptr %19, align 4
  br label %90

73:                                               ; preds = %67
  %74 = load ptr, ptr %18, align 8, !tbaa !32
  %75 = getelementptr inbounds nuw %struct.IDADlsMemRec, ptr %74, i32 0, i32 9
  %76 = load ptr, ptr %75, align 8, !tbaa !47
  %77 = load ptr, ptr %18, align 8, !tbaa !32
  %78 = getelementptr inbounds nuw %struct.IDADlsMemRec, ptr %77, i32 0, i32 11
  %79 = load ptr, ptr %78, align 8, !tbaa !48
  %80 = call i64 @BandGBTRF(ptr noundef %76, ptr noundef %79)
  store i64 %80, ptr %17, align 8, !tbaa !7
  %81 = load i64, ptr %17, align 8, !tbaa !7
  %82 = icmp ne i64 %81, 0
  br i1 %82, label %83, label %87

83:                                               ; preds = %73
  %84 = load i64, ptr %17, align 8, !tbaa !7
  %85 = load ptr, ptr %18, align 8, !tbaa !32
  %86 = getelementptr inbounds nuw %struct.IDADlsMemRec, ptr %85, i32 0, i32 14
  store i64 %84, ptr %86, align 8, !tbaa !41
  store i32 1, ptr %8, align 4
  store i32 1, ptr %19, align 4
  br label %90

87:                                               ; preds = %73
  %88 = load ptr, ptr %18, align 8, !tbaa !32
  %89 = getelementptr inbounds nuw %struct.IDADlsMemRec, ptr %88, i32 0, i32 14
  store i64 0, ptr %89, align 8, !tbaa !41
  store i32 0, ptr %8, align 4
  store i32 1, ptr %19, align 4
  br label %90

90:                                               ; preds = %87, %83, %70, %63
  call void @llvm.lifetime.end.p0(i64 8, ptr %18) #5
  call void @llvm.lifetime.end.p0(i64 8, ptr %17) #5
  call void @llvm.lifetime.end.p0(i64 4, ptr %16) #5
  %91 = load i32, ptr %8, align 4
  ret i32 %91
}