; Function Attrs: nounwind uwtable
define internal range(i32 -1, 2) i32 @IDABandSetup(ptr noundef %0, ptr noundef %1, ptr noundef %2, ptr noundef %3, ptr noundef %4, ptr noundef %5, ptr noundef %6) #0 {
  %8 = getelementptr inbounds nuw i8, ptr %0, i64 1632
  %9 = load ptr, ptr %8, align 8, !tbaa !40
  %10 = getelementptr inbounds nuw i8, ptr %9, i64 96
  %11 = load i64, ptr %10, align 8, !tbaa !44
  %12 = add nsw i64 %11, 1
  store i64 %12, ptr %10, align 8, !tbaa !44
  %13 = getelementptr inbounds nuw i8, ptr %9, i64 72
  %14 = load ptr, ptr %13, align 8, !tbaa !38
  tail call void @SetToZero(ptr noundef %14) #7
  %15 = getelementptr inbounds nuw i8, ptr %9, i64 56
  %16 = load ptr, ptr %15, align 8, !tbaa !41
  %17 = getelementptr inbounds nuw i8, ptr %9, i64 8
  %18 = load i64, ptr %17, align 8, !tbaa !34
  %19 = getelementptr inbounds nuw i8, ptr %9, i64 24
  %20 = load i64, ptr %19, align 8, !tbaa !36
  %21 = getelementptr inbounds nuw i8, ptr %9, i64 16
  %22 = load i64, ptr %21, align 8, !tbaa !35
  %23 = getelementptr inbounds nuw i8, ptr %0, i64 1184
  %24 = load double, ptr %23, align 8, !tbaa !45
  %25 = getelementptr inbounds nuw i8, ptr %0, i64 1200
  %26 = load double, ptr %25, align 8, !tbaa !46
  %27 = load ptr, ptr %13, align 8, !tbaa !38
  %28 = getelementptr inbounds nuw i8, ptr %9, i64 64
  %29 = load ptr, ptr %28, align 8, !tbaa !43
  %30 = tail call i32 %16(i64 noundef %18, i64 noundef %20, i64 noundef %22, double noundef %24, double noundef %26, ptr noundef %1, ptr noundef %2, ptr noundef %3, ptr noundef %27, ptr noundef %29, ptr noundef %4, ptr noundef %5, ptr noundef %6) #7
  %31 = icmp slt i32 %30, 0
  br i1 %31, label %32, label %34

32:                                               ; preds = %7
  tail call void (ptr, i32, ptr, ptr, ptr, ...) @IDAProcessError(ptr noundef nonnull %0, i32 noundef -5, ptr noundef nonnull @.str, ptr noundef nonnull @.str.10, ptr noundef nonnull @.str.11) #7
  %33 = getelementptr inbounds nuw i8, ptr %9, i64 112
  store i64 -5, ptr %33, align 8, !tbaa !32
  br label %45

34:                                               ; preds = %7
  %.not = icmp eq i32 %30, 0
  br i1 %.not, label %37, label %35

35:                                               ; preds = %34
  %36 = getelementptr inbounds nuw i8, ptr %9, i64 112
  store i64 -6, ptr %36, align 8, !tbaa !32
  br label %45

37:                                               ; preds = %34
  %38 = load ptr, ptr %13, align 8, !tbaa !38
  %39 = getelementptr inbounds nuw i8, ptr %9, i64 88
  %40 = load ptr, ptr %39, align 8, !tbaa !39
  %41 = tail call i64 @BandGBTRF(ptr noundef %38, ptr noundef %40) #7
  %.not30 = icmp eq i64 %41, 0
  %42 = getelementptr inbounds nuw i8, ptr %9, i64 112
  br i1 %.not30, label %44, label %43

43:                                               ; preds = %37
  store i64 %41, ptr %42, align 8, !tbaa !32
  br label %45

44:                                               ; preds = %37
  store i64 0, ptr %42, align 8, !tbaa !32
  br label %45

45:                                               ; preds = %44, %43, %35, %32
  %.0 = phi i32 [ -1, %32 ], [ 1, %35 ], [ 1, %43 ], [ 0, %44 ]
  ret i32 %.0
}